; Function Attrs: nofree nounwind uwtable
define void @Bac_PtrDumpBoxBlif(ptr noundef captures(none) %0, ptr noundef readonly captures(none) %1) local_unnamed_addr #3 {
  %3 = tail call i64 @fwrite(ptr nonnull @.str.1, i64 7, i64 1, ptr %0)
  %4 = getelementptr i8, ptr %1, i64 8
  %.val14 = load ptr, ptr %4, align 8
  %5 = load ptr, ptr %.val14, align 8
  %6 = tail call i32 (ptr, ptr, ...) @fprintf(ptr noundef %0, ptr noundef nonnull @.str, ptr noundef %5) #14
  %7 = getelementptr i8, ptr %1, i64 4
  %.val1516 = load i32, ptr %7, align 4
  %8 = icmp sgt i32 %.val1516, 2
  br i1 %8, label %.lr.ph, label %.critedge

.lr.ph:                                           ; preds = %2, %.lr.ph
  %indvars.iv = phi i64 [ %indvars.iv.next, %.lr.ph ], [ 2, %2 ]
  %.val13 = load ptr, ptr %4, align 8
  %9 = getelementptr inbounds nuw ptr, ptr %.val13, i64 %indvars.iv
  %10 = load ptr, ptr %9, align 8
  %11 = or disjoint i64 %indvars.iv, 1
  %12 = getelementptr inbounds nuw ptr, ptr %.val13, i64 %11
  %13 = load ptr, ptr %12, align 8
  %14 = tail call i32 (ptr, ptr, ...) @fprintf(ptr noundef %0, ptr noundef nonnull @.str.2, ptr noundef %10, ptr noundef %13) #14
  %indvars.iv.next = add nuw nsw i64 %indvars.iv, 2
  %.val15 = load i32, ptr %7, align 4
  %15 = trunc nuw i64 %indvars.iv.next to i32
  %16 = icmp sgt i32 %.val15, %15
  br i1 %16, label %.lr.ph, label %.critedge, !llvm.loop !10

.critedge:                                        ; preds = %.lr.ph, %2
  %fputc = tail call i32 @fputc(i32 10, ptr %0)
  ret void
}